target datalayout = "e-m:e-p270:32:32-p271:32:32-p272:64:64-i64:64-i128:128-f80:128-n8:16:32:64-S128"
target triple = "x86_64-pc-linux-gnu"

%struct.nstime_t = type { i64, i32 }
%struct._packet_info = type { ptr, ptr, i32, i32, %struct.nstime_t, %struct.nstime_t, %struct.nstime_t, i8, ptr, ptr, ptr, ptr, %struct._address, %struct._address, %struct._address, %struct._address, %struct._address, %struct._address, i32, ptr, i8, [3 x i8], %struct.anon, i32, i32, i32, i32, ptr, i8, ptr, ptr, i16, i16, i32, i32, i16, i32, i32, ptr, ptr, ptr, i8, i8, i16, i16, i16, i32, i16, i16, ptr, ptr, ptr, ptr, ptr, i32, i32 }
%struct._address = type { i32, i32, ptr, ptr }
%struct.anon = type { i8, [3 x i8] }
%struct._frame_data = type <{ i32, i32, i32, i32, i32, [4 x i8], i64, ptr, ptr, ptr, i8, i16, [5 x i8], %struct.nstime_t, %struct.nstime_t, i32, i32 }>
%struct.ue_parameters_t = type { i8, i8, i8, i8, %struct.drx_state_t }
%struct.drx_state_t = type { %struct.drx_config_t, %struct.drx_running_state_t, %struct.drx_running_state_t }
%struct.drx_config_t = type { i8, i32, i32, i32, i32, i32, i32, i32, i8, i32, i32 }
%struct.drx_running_state_t = type { i8, i8, %struct.nstime_t, i64, i16, i16, i64, i64, [8 x i64], [8 x i64], i64 }

@global_mac_lte_show_drx = internal global i8 0, align 1
@mac_lte_ue_parameters = internal global ptr null, align 8

; Function Attrs: nounwind null_pointer_is_valid sspstrong uwtable
define internal void @init_drx_ue_state(ptr noundef %0, i1 noundef zeroext %1) #4 {
  %3 = alloca ptr, align 8
  %4 = alloca i8, align 1
  %5 = alloca i32, align 4
  store ptr %0, ptr %3, align 8
  %6 = zext i1 %1 to i8
  store i8 %6, ptr %4, align 1
  call void @llvm.lifetime.start.p0(i64 4, ptr %5) #16
  %7 = load ptr, ptr %3, align 8
  %8 = getelementptr inbounds nuw %struct.drx_state_t, ptr %7, i32 0, i32 1
  %9 = getelementptr inbounds nuw %struct.drx_running_state_t, ptr %8, i32 0, i32 1
  store i8 0, ptr %9, align 1
  %10 = load i8, ptr %4, align 1, !range !9, !noundef !10
  %11 = trunc i8 %10 to i1
  br i1 %11, label %12, label %16

12:                                               ; preds = %2
  %13 = load ptr, ptr %3, align 8
  %14 = getelementptr inbounds nuw %struct.drx_state_t, ptr %13, i32 0, i32 1
  %15 = getelementptr inbounds nuw %struct.drx_running_state_t, ptr %14, i32 0, i32 6
  store i64 0, ptr %15, align 8
  br label %16

16:                                               ; preds = %12, %2
  %17 = load ptr, ptr %3, align 8
  %18 = getelementptr inbounds nuw %struct.drx_state_t, ptr %17, i32 0, i32 1
  %19 = getelementptr inbounds nuw %struct.drx_running_state_t, ptr %18, i32 0, i32 7
  store i64 0, ptr %19, align 8
  store i32 0, ptr %5, align 4
  br label %20

20:                                               ; preds = %36, %16
  %21 = load i32, ptr %5, align 4
  %22 = icmp slt i32 %21, 8
  br i1 %22, label %23, label %39

23:                                               ; preds = %20
  %24 = load ptr, ptr %3, align 8
  %25 = getelementptr inbounds nuw %struct.drx_state_t, ptr %24, i32 0, i32 1
  %26 = getelementptr inbounds nuw %struct.drx_running_state_t, ptr %25, i32 0, i32 8
  %27 = load i32, ptr %5, align 4
  %28 = sext i32 %27 to i64
  %29 = getelementptr [8 x i64], ptr %26, i64 0, i64 %28
  store i64 0, ptr %29, align 8
  %30 = load ptr, ptr %3, align 8
  %31 = getelementptr inbounds nuw %struct.drx_state_t, ptr %30, i32 0, i32 1
  %32 = getelementptr inbounds nuw %struct.drx_running_state_t, ptr %31, i32 0, i32 9
  %33 = load i32, ptr %5, align 4
  %34 = sext i32 %33 to i64
  %35 = getelementptr [8 x i64], ptr %32, i64 0, i64 %34
  store i64 0, ptr %35, align 8
  br label %36

36:                                               ; preds = %23
  %37 = load i32, ptr %5, align 4
  %38 = add i32 %37, 1
  store i32 %38, ptr %5, align 4
  br label %20, !llvm.loop !11

39:                                               ; preds = %20
  %40 = load ptr, ptr %3, align 8
  %41 = getelementptr inbounds nuw %struct.drx_state_t, ptr %40, i32 0, i32 1
  %42 = getelementptr inbounds nuw %struct.drx_running_state_t, ptr %41, i32 0, i32 10
  store i64 0, ptr %42, align 8
  call void @llvm.lifetime.end.p0(i64 4, ptr %5) #16
  ret void
}

; Function Attrs: null_pointer_is_valid sspstrong uwtable
define hidden void @set_mac_lte_drx_config(i16 noundef zeroext %0, ptr noundef %1, ptr noundef %2) #0 {
  %4 = alloca i16, align 2
  %5 = alloca ptr, align 8
  %6 = alloca ptr, align 8
  %7 = alloca ptr, align 8
  %8 = alloca i32, align 4
  store i16 %0, ptr %4, align 2
  store ptr %1, ptr %5, align 8
  store ptr %2, ptr %6, align 8
  %9 = load i8, ptr @global_mac_lte_show_drx, align 1, !range !9, !noundef !10
  %10 = trunc i8 %9 to i1
  br i1 %10, label %11, label %67

11:                                               ; preds = %3
  %12 = load ptr, ptr %6, align 8
  %13 = getelementptr inbounds nuw %struct._packet_info, ptr %12, i32 0, i32 8
  %14 = load ptr, ptr %13, align 8
  %15 = getelementptr inbounds nuw %struct._frame_data, ptr %14, i32 0, i32 11
  %16 = load i16, ptr %15, align 1
  %17 = lshr i16 %16, 3
  %18 = and i16 %17, 1
  %19 = zext i16 %18 to i32
  %20 = icmp ne i32 %19, 0
  br i1 %20, label %67, label %21

21:                                               ; preds = %11
  call void @llvm.lifetime.start.p0(i64 8, ptr %7) #16
  call void @llvm.lifetime.start.p0(i64 4, ptr %8) #16
  store i32 0, ptr %8, align 4
  %22 = load ptr, ptr @mac_lte_ue_parameters, align 8
  %23 = load i16, ptr %4, align 2
  %24 = zext i16 %23 to i32
  %25 = zext i32 %24 to i64
  %26 = inttoptr i64 %25 to ptr
  %27 = call ptr @g_hash_table_lookup(ptr noundef %22, ptr noundef %26)
  store ptr %27, ptr %7, align 8
  %28 = load ptr, ptr %7, align 8
  %29 = icmp eq ptr %28, null
  br i1 %29, label %30, label %40

30:                                               ; preds = %21
  %31 = call ptr @wmem_file_scope()
  %32 = call noalias ptr @wmem_alloc0(ptr noundef %31, i64 noundef 440) #17
  store ptr %32, ptr %7, align 8
  %33 = load ptr, ptr @mac_lte_ue_parameters, align 8
  %34 = load i16, ptr %4, align 2
  %35 = zext i16 %34 to i32
  %36 = zext i32 %35 to i64
  %37 = inttoptr i64 %36 to ptr
  %38 = load ptr, ptr %7, align 8
  %39 = call i32 @g_hash_table_insert(ptr noundef %33, ptr noundef %37, ptr noundef %38)
  br label %46

40:                                               ; preds = %21
  %41 = load ptr, ptr %7, align 8
  %42 = getelementptr inbounds nuw %struct.ue_parameters_t, ptr %41, i32 0, i32 4
  %43 = getelementptr inbounds nuw %struct.drx_state_t, ptr %42, i32 0, i32 0
  %44 = getelementptr inbounds nuw %struct.drx_config_t, ptr %43, i32 0, i32 1
  %45 = load i32, ptr %44, align 4
  store i32 %45, ptr %8, align 4
  br label %46

46:                                               ; preds = %40, %30
  %47 = load ptr, ptr %7, align 8
  %48 = getelementptr inbounds nuw %struct.ue_parameters_t, ptr %47, i32 0, i32 3
  store i8 1, ptr %48, align 1
  %49 = load ptr, ptr %7, align 8
  %50 = getelementptr inbounds nuw %struct.ue_parameters_t, ptr %49, i32 0, i32 4
  call void @init_drx_ue_state(ptr noundef %50, i1 noundef zeroext true)
  %51 = load ptr, ptr %7, align 8
  %52 = getelementptr inbounds nuw %struct.ue_parameters_t, ptr %51, i32 0, i32 4
  %53 = getelementptr inbounds nuw %struct.drx_state_t, ptr %52, i32 0, i32 0
  %54 = load ptr, ptr %5, align 8
  call void @llvm.memcpy.p0.p0.i64(ptr align 8 %53, ptr align 4 %54, i64 44, i1 false)
  %55 = load ptr, ptr %6, align 8
  %56 = getelementptr inbounds nuw %struct._packet_info, ptr %55, i32 0, i32 3
  %57 = load i32, ptr %56, align 4
  %58 = load ptr, ptr %7, align 8
  %59 = getelementptr inbounds nuw %struct.ue_parameters_t, ptr %58, i32 0, i32 4
  %60 = getelementptr inbounds nuw %struct.drx_state_t, ptr %59, i32 0, i32 0
  %61 = getelementptr inbounds nuw %struct.drx_config_t, ptr %60, i32 0, i32 1
  store i32 %57, ptr %61, align 4
  %62 = load i32, ptr %8, align 4
  %63 = load ptr, ptr %7, align 8
  %64 = getelementptr inbounds nuw %struct.ue_parameters_t, ptr %63, i32 0, i32 4
  %65 = getelementptr inbounds nuw %struct.drx_state_t, ptr %64, i32 0, i32 0
  %66 = getelementptr inbounds nuw %struct.drx_config_t, ptr %65, i32 0, i32 2
  store i32 %62, ptr %66, align 8
  call void @llvm.lifetime.end.p0(i64 4, ptr %8) #16
  call void @llvm.lifetime.end.p0(i64 8, ptr %7) #16
  br label %67

67:                                               ; preds = %46, %11, %3
  ret void
}