; Function Attrs: null_pointer_is_valid sspstrong uwtable
define hidden void @set_mac_lte_drx_config(i16 noundef zeroext %0, ptr noundef readonly captures(none) %1, ptr noundef readonly captures(none) %2) local_unnamed_addr #0 {
  %4 = load i8, ptr @global_mac_lte_show_drx, align 1, !range !9, !noundef !10
  %5 = trunc nuw i8 %4 to i1
  br i1 %5, label %6, label %35

6:                                                ; preds = %3
  %7 = getelementptr inbounds nuw i8, ptr %2, i64 80
  %8 = load ptr, ptr %7, align 8
  %9 = getelementptr inbounds nuw i8, ptr %8, i64 57
  %10 = load i16, ptr %9, align 1
  %11 = and i16 %10, 8
  %.not = icmp eq i16 %11, 0
  br i1 %.not, label %12, label %35

12:                                               ; preds = %6
  %13 = load ptr, ptr @mac_lte_ue_parameters, align 8
  %14 = zext i16 %0 to i64
  %15 = inttoptr i64 %14 to ptr
  %16 = tail call ptr @g_hash_table_lookup(ptr noundef %13, ptr noundef %15)
  %17 = icmp eq ptr %16, null
  br i1 %17, label %18, label %23

18:                                               ; preds = %12
  %19 = tail call ptr @wmem_file_scope()
  %20 = tail call noalias dereferenceable_or_null(440) ptr @wmem_alloc0(ptr noundef %19, i64 noundef 440) #17
  %21 = load ptr, ptr @mac_lte_ue_parameters, align 8
  %22 = tail call i32 @g_hash_table_insert(ptr noundef %21, ptr noundef %15, ptr noundef %20)
  br label %26

23:                                               ; preds = %12
  %24 = getelementptr inbounds nuw i8, ptr %16, i64 12
  %25 = load i32, ptr %24, align 4
  br label %26

26:                                               ; preds = %23, %18
  %.013 = phi ptr [ %20, %18 ], [ %16, %23 ]
  %.0 = phi i32 [ 0, %18 ], [ %25, %23 ]
  %27 = getelementptr inbounds nuw i8, ptr %.013, i64 3
  store i8 1, ptr %27, align 1
  %28 = getelementptr inbounds nuw i8, ptr %.013, i64 8
  %29 = getelementptr inbounds nuw i8, ptr %.013, i64 57
  store i8 0, ptr %29, align 1
  %30 = getelementptr inbounds nuw i8, ptr %.013, i64 96
  tail call void @llvm.memset.p0.i64(ptr noundef nonnull align 8 dereferenceable(152) %30, i8 0, i64 152, i1 false)
  tail call void @llvm.memcpy.p0.p0.i64(ptr noundef nonnull align 8 dereferenceable(44) %28, ptr noundef align 4 dereferenceable(44) %1, i64 44, i1 false)
  %31 = getelementptr inbounds nuw i8, ptr %2, i64 20
  %32 = load i32, ptr %31, align 4
  %33 = getelementptr inbounds nuw i8, ptr %.013, i64 12
  store i32 %32, ptr %33, align 4
  %34 = getelementptr inbounds nuw i8, ptr %.013, i64 16
  store i32 %.0, ptr %34, align 8
  br label %35

35:                                               ; preds = %26, %6, %3
  ret void
}